; Function Attrs: mustprogress nounwind uwtable
define void @_ZN5arrow4util17CountingSemaphoreD2Ev(ptr noundef nonnull align 8 captures(none) dereferenceable(8) %0) unnamed_addr #6 align 2 personality ptr @__gxx_personality_v0 {
  %2 = load ptr, ptr %0, align 8, !tbaa !17
  %.not.i = icmp eq ptr %2, null
  br i1 %.not.i, label %_ZNSt10unique_ptrIN5arrow4util17CountingSemaphore4ImplESt14default_deleteIS3_EED2Ev.exit, label %_ZNKSt14default_deleteIN5arrow4util17CountingSemaphore4ImplEEclEPS3_.exit.i

_ZNKSt14default_deleteIN5arrow4util17CountingSemaphore4ImplEEclEPS3_.exit.i: ; preds = %1
  %3 = getelementptr inbounds nuw i8, ptr %2, i64 112
  tail call void @_ZNSt18condition_variableD1Ev(ptr noundef nonnull align 8 dereferenceable(48) %3) #15
  %4 = getelementptr inbounds nuw i8, ptr %2, i64 64
  tail call void @_ZNSt18condition_variableD1Ev(ptr noundef nonnull align 8 dereferenceable(48) %4) #15
  tail call void @_ZdlPvm(ptr noundef nonnull %2, i64 noundef 160) #16
  br label %_ZNSt10unique_ptrIN5arrow4util17CountingSemaphore4ImplESt14default_deleteIS3_EED2Ev.exit

_ZNSt10unique_ptrIN5arrow4util17CountingSemaphore4ImplESt14default_deleteIS3_EED2Ev.exit: ; preds = %1, %_ZNKSt14default_deleteIN5arrow4util17CountingSemaphore4ImplEEclEPS3_.exit.i
  store ptr null, ptr %0, align 8, !tbaa !17
  ret void
}